(lp0
(I72
I0
I170
tp1
a(I36
I0
I0
tp2
a(I180
I72
I170
tp3
a(I72
I216
I255
tp4
a(I252
I252
I0
tp5
a(I180
I144
I85
tp6
a(I36
I108
I170
tp7
a(I36
I216
I0
tp8
a(I144
I180
I85
tp9
a(I180
I36
I170
tp10
a(I36
I72
I170
tp11
a(I72
I72
I255
tp12
a(I216
I0
I0
tp13
a(I36
I252
I170
tp14
a(I144
I144
I85
tp15
a(I0
I108
I170
tp16
a(I0
I216
I170
tp17
a(I216
I36
I255
tp18
a(I36
I216
I170
tp19
a(I0
I0
I255
tp20
a(I108
I108
I0
tp21
a(I144
I108
I85
tp22
a(I108
I36
I170
tp23
a(I108
I144
I0
tp24
a(I252
I108
I170
tp25
a(I252
I216
I255
tp26
a(I0
I144
I255
tp27
a(I108
I180
I170
tp28
a(I216
I252
I0
tp29
a(I180
I108
I85
tp30
a(I72
I180
I170
tp31
a(I180
I36
I255
tp32
a(I72
I108
I85
tp33
a(I108
I108
I170
tp34
a(I144
I216
I85
tp35
a(I36
I36
I0
tp36
a(I252
I180
I170
tp37
a(I252
I0
I0
tp38
a(I216
I180
I170
tp39
a(I180
I180
I255
tp40
a(I36
I252
I0
tp41
a(I72
I144
I170
tp42
a(I108
I72
I255
tp43
a(I252
I144
I170
tp44
a(I108
I36
I255
tp45
a(I36
I144
I85
tp46
a(I252
I36
I170
tp47
a(I216
I36
I170
tp48
a(I144
I216
I255
tp49
a(I0
I180
I85
tp50
a(I252
I252
I170
tp51
a(I72
I36
I0
tp52
a(I252
I0
I170
tp53
a(I216
I72
I255
tp54
a(I36
I0
I85
tp55
a(I0
I36
I255
tp56
a(I0
I144
I85
tp57
a(I144
I72
I255
tp58
a(I36
I180
I170
tp59
a(I72
I180
I0
tp60
a(I108
I0
I170
tp61
a(I252
I180
I255
tp62
a(I108
I216
I85
tp63
a(I72
I216
I170
tp64
a(I0
I180
I255
tp65
a(I216
I216
I0
tp66
a(I255
I255
I255
tp67
a(I0
I252
I0
tp68
a(I108
I144
I170
tp69
a(I108
I72
I85
tp70
a(I72
I252
I255
tp71
a(I72
I72
I85
tp72
a(I252
I36
I0
tp73
a(I216
I108
I85
tp74
a(I108
I252
I170
tp75
a(I0
I108
I0
tp76
a(I216
I144
I85
tp77
a(I252
I72
I85
tp78
a(I0
I0
I170
tp79
a(I72
I108
I255
tp80
a(I180
I216
I0
tp81
a(I216
I72
I85
tp82
a(I36
I180
I255
tp83
a(I216
I252
I85
tp84
a(I36
I36
I170
tp85
a(I144
I252
I255
tp86
a(I0
I36
I170
tp87
a(I252
I216
I85
tp88
a(I180
I252
I170
tp89
a(I216
I108
I255
tp90
a(I180
I72
I0
tp91
a(I216
I216
I85
tp92
a(I108
I180
I0
tp93
a(I144
I108
I255
tp94
a(I108
I216
I0
tp95
a(I36
I108
I255
tp96
a(I252
I144
I255
tp97
a(I144
I36
I0
tp98
a(I108
I252
I255
tp99
a(I180
I180
I170
tp100
a(I180
I0
I255
tp101
a(I216
I180
I0
tp102
a(I216
I0
I85
tp103
a(I72
I252
I170
tp104
a(I180
I108
I255
tp105
a(I0
I216
I0
tp106
a(I72
I36
I85
tp107
a(I144
I0
I170
tp108
a(I144
I180
I0
tp109
a(I180
I144
I255
tp110
a(I252
I72
I0
tp111
a(I144
I36
I170
tp112
a(I180
I252
I255
tp113
a(I0
I72
I0
tp114
a(I108
I0
I255
tp115
a(I144
I252
I170
tp116
a(I252
I108
I255
tp117
a(I144
I72
I170
tp118
a(I36
I144
I255
tp119
a(I144
I144
I255
tp120
a(I72
I0
I0
tp121
a(I0
I252
I85
tp122
a(I216
I144
I255
tp123
a(I0
I72
I170
tp124
a(I180
I216
I170
tp125
a(I144
I0
I255
tp126
a(I72
I144
I0
tp127
a(I180
I0
I85
tp128
a(I36
I72
I255
tp129
a(I36
I72
I0
tp130
a(I180
I0
I170
tp131
a(I72
I144
I255
tp132
a(I144
I0
I0
tp133
a(I180
I216
I85
tp134
a(I0
I72
I85
tp135
a(I216
I144
I0
tp136
a(I0
I252
I170
tp137
a(I72
I0
I255
tp138
a(I144
I144
I0
tp139
a(I36
I144
I0
tp140
a(I144
I72
I85
tp141
a(I252
I108
I0
tp142
a(I144
I252
I85
tp143
a(I108
I0
I0
tp144
a(I0
I72
I255
tp145
a(I180
I252
I0
tp146
a(I144
I36
I85
tp147
a(I252
I72
I255
tp148
a(I180
I144
I0
tp149
a(I144
I180
I255
tp150
a(I144
I0
I85
tp151
a(I72
I36
I170
tp152
a(I0
I216
I255
tp153
a(I180
I108
I0
tp154
a(I72
I252
I85
tp155
a(I216
I0
I170
tp156
a(I216
I180
I255
tp157
a(I180
I0
I0
tp158
a(I180
I180
I85
tp159
a(I108
I252
I0
tp160
a(I144
I36
I255
tp161
a(I252
I144
I0
tp162
a(I36
I108
I0
tp163
a(I108
I216
I255
tp164
a(I144
I108
I0
tp165
a(I108
I180
I255
tp166
a(I216
I216
I170
tp167
a(I180
I72
I255
tp168
a(I216
I108
I0
tp169
a(I180
I252
I85
tp170
a(I252
I216
I170
tp171
a(I0
I36
I85
tp172
a(I144
I252
I0
tp173
a(I36
I36
I85
tp174
a(I216
I252
I170
tp175
a(I36
I180
I0
tp176
a(I216
I72
I170
tp177
a(I180
I216
I255
tp178
a(I72
I108
I0
tp179
a(I0
I0
I85
tp180
a(I252
I72
I170
tp181
a(I216
I144
I170
tp182
a(I0
I108
I255
tp183
a(I108
I252
I85
tp184
a(I216
I108
I170
tp185
a(I252
I36
I255
tp186
a(I72
I72
I170
tp187
a(I72
I252
I0
tp188
a(I108
I72
I170
tp189
a(I108
I144
I85
tp190
a(I0
I252
I255
tp191
a(I216
I216
I255
tp192
a(I0
I180
I0
tp193
a(I72
I216
I85
tp194
a(I108
I216
I170
tp195
a(I252
I180
I0
tp196
a(I108
I0
I85
tp197
a(I72
I180
I255
tp198
a(I36
I180
I85
tp199
a(I144
I72
I0
tp200
a(I0
I144
I170
tp201
a(I0
I36
I0
tp202
a(I36
I0
I170
tp203
a(I216
I72
I0
tp204
a(I252
I0
I85
tp205
a(I72
I36
I255
tp206
a(I252
I252
I85
tp207
a(I0
I180
I170
tp208
a(I144
I216
I0
tp209
a(I216
I36
I85
tp210
a(I252
I36
I85
tp211
a(I36
I144
I170
tp212
a(I108
I36
I0
tp213
a(I252
I144
I85
tp214
a(I108
I72
I0
tp215
a(I72
I144
I85
tp216
a(I36
I252
I255
tp217
a(I180
I180
I0
tp218
a(I216
I180
I85
tp219
a(I252
I0
I255
tp220
a(I252
I180
I85
tp221
a(I36
I36
I255
tp222
a(I144
I216
I170
tp223
a(I108
I108
I85
tp224
a(I72
I108
I170
tp225
a(I180
I36
I0
tp226
a(I72
I180
I85
tp227
a(I180
I108
I170
tp228
a(I216
I252
I255
tp229
a(I108
I180
I85
tp230
a(I0
I144
I0
tp231
a(I252
I216
I0
tp232
a(I252
I108
I85
tp233
a(I108
I144
I255
tp234
a(I108
I36
I85
tp235
a(I144
I108
I170
tp236
a(I108
I108
I255
tp237
a(I0
I0
I0
tp238
a(I36
I216
I85
tp239
a(I216
I36
I0
tp240
a(I0
I216
I85
tp241
a(I0
I108
I85
tp242
a(I144
I144
I170
tp243
a(I36
I252
I85
tp244
a(I216
I0
I255
tp245
a(I72
I72
I0
tp246
a(I36
I72
I85
tp247
a(I180
I36
I85
tp248
a(I144
I180
I170
tp249
a(I36
I216
I255
tp250
a(I36
I108
I85
tp251
a(I180
I144
I170
tp252
a(I72
I216
I0
tp253
a(I180
I72
I85
tp254
a(I36
I0
I255
tp255
a(I72
I0
I85
tp256
a.