(lp0
(I36
I0
I0
tp1
a(I255
I182
I72
tp2
a(I218
I36
I0
tp3
a(I182
I109
I109
tp4
a(I218
I145
I72
tp5
a(I255
I218
I218
tp6
a(I0
I218
I0
tp7
a(I72
I72
I255
tp8
a(I182
I72
I218
tp9
a(I218
I255
I36
tp10
a(I72
I109
I218
tp11
a(I0
I0
I218
tp12
a(I36
I145
I72
tp13
a(I145
I72
I72
tp14
a(I72
I182
I109
tp15
a(I145
I72
I255
tp16
a(I109
I145
I182
tp17
a(I145
I0
I109
tp18
a(I109
I109
I255
tp19
a(I0
I0
I109
tp20
a(I255
I145
I72
tp21
a(I109
I182
I182
tp22
a(I109
I72
I218
tp23
a(I72
I145
I255
tp24
a(I109
I0
I72
tp25
a(I182
I36
I0
tp26
a(I145
I255
I255
tp27
a(I145
I182
I218
tp28
a(I0
I218
I182
tp29
a(I0
I255
I72
tp30
a(I145
I218
I145
tp31
a(I218
I0
I218
tp32
a(I109
I255
I255
tp33
a(I255
I0
I218
tp34
a(I145
I36
I109
tp35
a(I255
I109
I145
tp36
a(I109
I109
I145
tp37
a(I72
I36
I109
tp38
a(I72
I255
I255
tp39
a(I109
I182
I72
tp40
a(I72
I36
I182
tp41
a(I72
I72
I36
tp42
a(I255
I36
I36
tp43
a(I255
I145
I182
tp44
a(I145
I0
I0
tp45
a(I182
I255
I109
tp46
a(I36
I218
I182
tp47
a(I145
I72
I182
tp48
a(I0
I109
I255
tp49
a(I109
I145
I255
tp50
a(I109
I145
I72
tp51
a(I0
I218
I109
tp52
a(I72
I182
I182
tp53
a(I255
I36
I145
tp54
a(I72
I109
I36
tp55
a(I255
I218
I72
tp56
a(I182
I255
I182
tp57
a(I0
I36
I145
tp58
a(I72
I0
I145
tp59
a(I0
I72
I0
tp60
a(I72
I145
I182
tp61
a(I255
I255
I0
tp62
a(I36
I218
I218
tp63
a(I182
I255
I72
tp64
a(I72
I255
I72
tp65
a(I218
I0
I72
tp66
a(I72
I255
I36
tp67
a(I182
I218
I72
tp68
a(I36
I72
I109
tp69
a(I218
I72
I255
tp70
a(I218
I72
I72
tp71
a(I182
I182
I145
tp72
a(I145
I109
I109
tp73
a(I255
I72
I218
tp74
a(I255
I36
I109
tp75
a(I72
I109
I145
tp76
a(I255
I255
I109
tp77
a(I36
I182
I218
tp78
a(I218
I218
I72
tp79
a(I218
I0
I182
tp80
a(I218
I255
I255
tp81
a(I182
I145
I182
tp82
a(I36
I255
I145
tp83
a(I0
I109
I182
tp84
a(I36
I255
I36
tp85
a(I145
I0
I255
tp86
a(I218
I109
I182
tp87
a(I182
I218
I0
tp88
a(I145
I182
I182
tp89
a(I218
I182
I255
tp90
a(I109
I182
I255
tp91
a(I72
I0
I218
tp92
a(I36
I218
I0
tp93
a(I109
I0
I218
tp94
a(I255
I0
I182
tp95
a(I255
I218
I145
tp96
a(I255
I0
I0
tp97
a(I218
I182
I36
tp98
a(I0
I255
I218
tp99
a(I255
I255
I72
tp100
a(I145
I36
I36
tp101
a(I145
I218
I255
tp102
a(I255
I109
I218
tp103
a(I109
I218
I145
tp104
a(I0
I255
I36
tp105
a(I109
I255
I145
tp106
a(I109
I218
I72
tp107
a(I255
I109
I36
tp108
a(I145
I36
I255
tp109
a(I145
I255
I72
tp110
a(I0
I145
I218
tp111
a(I0
I182
I36
tp112
a(I72
I36
I255
tp113
a(I182
I255
I218
tp114
a(I109
I36
I109
tp115
a(I145
I145
I218
tp116
a(I218
I218
I145
tp117
a(I218
I72
I145
tp118
a(I72
I0
I36
tp119
a(I255
I36
I218
tp120
a(I145
I109
I182
tp121
a(I36
I145
I0
tp122
a(I145
I72
I0
tp123
a(I0
I109
I109
tp124
a(I182
I145
I109
tp125
a(I255
I145
I0
tp126
a(I182
I218
I36
tp127
a(I145
I109
I145
tp128
a(I182
I36
I72
tp129
a(I36
I109
I0
tp130
a(I182
I109
I255
tp131
a(I218
I109
I109
tp132
a(I255
I72
I145
tp133
a(I182
I182
I255
tp134
a(I36
I0
I72
tp135
a(I218
I36
I72
tp136
a(I36
I72
I145
tp137
a(I182
I109
I0
tp138
a(I72
I109
I72
tp139
a(I0
I182
I109
tp140
a(I218
I72
I218
tp141
a(I218
I145
I218
tp142
a(I255
I255
I182
tp143
a(I182
I72
I72
tp144
a(I0
I218
I145
tp145
a(I218
I255
I182
tp146
a(I109
I109
I109
tp147
a(I218
I218
I218
tp148
a(I0
I0
I255
tp149
a(I72
I0
I109
tp150
a(I255
I145
I218
tp151
a(I182
I145
I0
tp152
a(I145
I72
I218
tp153
a(I72
I218
I182
tp154
a(I36
I145
I255
tp155
a(I145
I0
I72
tp156
a(I109
I145
I36
tp157
a(I0
I109
I36
tp158
a(I255
I218
I36
tp159
a(I36
I36
I0
tp160
a(I182
I72
I255
tp161
a(I36
I218
I36
tp162
a(I109
I182
I36
tp163
a(I72
I72
I72
tp164
a(I72
I145
I109
tp165
a(I0
I72
I72
tp166
a(I0
I36
I255
tp167
a(I0
I145
I109
tp168
a(I218
I0
I255
tp169
a(I145
I36
I182
tp170
a(I145
I218
I109
tp171
a(I109
I255
I36
tp172
a(I0
I145
I145
tp173
a(I145
I218
I0
tp174
a(I218
I0
I36
tp175
a(I0
I36
I36
tp176
a(I0
I255
I145
tp177
a(I109
I36
I36
tp178
a(I182
I0
I0
tp179
a(I109
I36
I255
tp180
a(I72
I72
I182
tp181
a(I0
I145
I72
tp182
a(I72
I182
I145
tp183
a(I182
I255
I36
tp184
a(I218
I182
I72
tp185
a(I0
I0
I145
tp186
a(I36
I145
I182
tp187
a(I109
I145
I109
tp188
a(I145
I182
I255
tp189
a(I72
I182
I36
tp190
a(I72
I255
I218
tp191
a(I109
I109
I182
tp192
a(I0
I0
I36
tp193
a(I218
I218
I36
tp194
a(I72
I145
I36
tp195
a(I218
I145
I36
tp196
a(I36
I255
I72
tp197
a(I255
I109
I72
tp198
a(I0
I72
I145
tp199
a(I36
I218
I72
tp200
a(I109
I0
I145
tp201
a(I255
I72
I72
tp202
a(I218
I36
I145
tp203
a(I182
I182
I36
tp204
a(I218
I72
I0
tp205
a(I36
I72
I255
tp206
a(I218
I72
I109
tp207
a(I218
I36
I182
tp208
a(I255
I182
I145
tp209
a(I255
I182
I36
tp210
a(I36
I0
I145
tp211
a(I218
I255
I109
tp212
a(I0
I145
I182
tp213
a(I182
I36
I182
tp214
a(I36
I182
I72
tp215
a(I36
I255
I182
tp216
a(I182
I0
I218
tp217
a(I218
I145
I145
tp218
a(I145
I0
I218
tp219
a(I182
I36
I145
tp220
a(I36
I182
I255
tp221
a(I0
I218
I36
tp222
a(I145
I145
I182
tp223
a(I218
I218
I109
tp224
a(I109
I218
I182
tp225
a(I0
I72
I218
tp226
a(I0
I145
I36
tp227
a(I145
I109
I218
tp228
a(I218
I0
I145
tp229
a(I109
I36
I145
tp230
a(I0
I182
I218
tp231
a(I145
I218
I218
tp232
a(I218
I182
I145
tp233
a(I255
I109
I255
tp234
a(I255
I182
I218
tp235
a(I145
I255
I145
tp236
a(I109
I255
I182
tp237
a(I109
I36
I182
tp238
a(I0
I36
I72
tp239
a(I109
I0
I36
tp240
a(I145
I109
I36
tp241
a(I182
I36
I255
tp242
a(I145
I145
I72
tp243
a(I0
I218
I218
tp244
a(I255
I36
I0
tp245
a(I182
I145
I72
tp246
a(I36
I218
I255
tp247
a(I182
I145
I255
tp248
a(I255
I255
I145
tp249
a(I72
I109
I255
tp250
a(I36
I36
I72
tp251
a(I218
I109
I255
tp252
a(I145
I145
I255
tp253
a(I218
I218
I182
tp254
a(I72
I72
I0
tp255
a(I218
I36
I255
tp256
a(I36
I72
I36
tp257
a(I218
I72
I182
tp258
a(I36
I0
I218
tp259
a(I182
I109
I72
tp260
a(I72
I109
I0
tp261
a(I182
I182
I72
tp262
a(I109
I182
I145
tp263
a(I36
I109
I255
tp264
a(I72
I145
I218
tp265
a(I255
I255
I36
tp266
a(I109
I72
I109
tp267
a(I218
I109
I0
tp268
a(I182
I0
I72
tp269
a(I255
I218
I182
tp270
a(I145
I182
I145
tp271
a(I182
I218
I145
tp272
a(I72
I182
I218
tp273
a(I72
I218
I36
tp274
a(I182
I218
I218
tp275
a(I36
I145
I109
tp276
a(I255
I145
I109
tp277
a(I36
I218
I145
tp278
a(I109
I218
I109
tp279
a(I36
I255
I0
tp280
a(I109
I109
I218
tp281
a(I218
I182
I182
tp282
a(I182
I72
I109
tp283
a(I72
I255
I0
tp284
a(I72
I255
I145
tp285
a(I72
I72
I218
tp286
a(I218
I218
I255
tp287
a(I255
I182
I0
tp288
a(I109
I218
I36
tp289
a(I255
I0
I72
tp290
a(I72
I36
I0
tp291
a(I145
I255
I218
tp292
a(I255
I0
I36
tp293
a(I145
I182
I72
tp294
a(I145
I218
I72
tp295
a(I145
I36
I72
tp296
a(I0
I255
I109
tp297
a(I255
I0
I255
tp298
a(I72
I0
I182
tp299
a(I145
I255
I36
tp300
a(I72
I145
I145
tp301
a(I109
I0
I182
tp302
a(I109
I72
I36
tp303
a(I36
I182
I0
tp304
a(I218
I182
I0
tp305
a(I0
I109
I218
tp306
a(I109
I109
I36
tp307
a(I72
I218
I72
tp308
a(I0
I0
I182
tp309
a(I218
I255
I0
tp310
a(I72
I218
I109
tp311
a(I255
I145
I145
tp312
a(I36
I145
I36
tp313
a(I72
I218
I145
tp314
a(I182
I255
I145
tp315
a(I145
I145
I0
tp316
a(I145
I182
I109
tp317
a(I0
I182
I0
tp318
a(I145
I0
I145
tp319
a(I182
I218
I109
tp320
a(I255
I218
I109
tp321
a(I182
I0
I182
tp322
a(I218
I0
I109
tp323
a(I218
I145
I182
tp324
a(I182
I72
I182
tp325
a(I109
I145
I145
tp326
a(I255
I72
I0
tp327
a(I255
I255
I218
tp328
a(I72
I0
I0
tp329
a(I255
I182
I182
tp330
a(I218
I255
I218
tp331
a(I109
I72
I145
tp332
a(I255
I36
I72
tp333
a(I36
I0
I36
tp334
a(I36
I109
I182
tp335
a(I218
I36
I36
tp336
a(I36
I72
I72
tp337
a(I145
I145
I145
tp338
a(I182
I109
I36
tp339
a(I72
I0
I255
tp340
a(I255
I72
I255
tp341
a(I182
I36
I36
tp342
a(I182
I218
I182
tp343
a(I145
I182
I36
tp344
a(I36
I36
I145
tp345
a(I0
I109
I145
tp346
a(I145
I109
I72
tp347
a(I36
I36
I36
tp348
a(I36
I182
I109
tp349
a(I182
I0
I255
tp350
a(I145
I145
I36
tp351
a(I109
I182
I109
tp352
a(I109
I36
I72
tp353
a(I109
I218
I218
tp354
a(I72
I218
I255
tp355
a(I0
I36
I182
tp356
a(I145
I36
I218
tp357
a(I0
I255
I255
tp358
a(I109
I255
I72
tp359
a(I145
I255
I109
tp360
a(I255
I0
I145
tp361
a(I0
I36
I0
tp362
a(I218
I182
I218
tp363
a(I218
I182
I109
tp364
a(I0
I72
I36
tp365
a(I182
I36
I109
tp366
a(I218
I109
I72
tp367
a(I145
I0
I36
tp368
a(I36
I36
I218
tp369
a(I0
I109
I72
tp370
a(I182
I145
I218
tp371
a(I0
I0
I72
tp372
a(I36
I36
I109
tp373
a(I182
I0
I36
tp374
a(I145
I145
I109
tp375
a(I218
I145
I109
tp376
a(I218
I255
I145
tp377
a(I36
I182
I182
tp378
a(I0
I218
I255
tp379
a(I182
I109
I218
tp380
a(I182
I182
I182
tp381
a(I36
I0
I109
tp382
a(I36
I109
I109
tp383
a(I218
I36
I109
tp384
a(I182
I72
I0
tp385
a(I36
I72
I182
tp386
a(I182
I182
I0
tp387
a(I218
I72
I36
tp388
a(I255
I72
I182
tp389
a(I182
I182
I218
tp390
a(I72
I255
I182
tp391
a(I255
I182
I109
tp392
a(I36
I109
I218
tp393
a(I72
I72
I109
tp394
a(I72
I145
I72
tp395
a(I218
I145
I0
tp396
a(I0
I72
I109
tp397
a(I109
I72
I255
tp398
a(I255
I145
I255
tp399
a(I109
I0
I109
tp400
a(I36
I255
I218
tp401
a(I109
I109
I72
tp402
a(I36
I145
I218
tp403
a(I72
I182
I255
tp404
a(I145
I72
I109
tp405
a(I72
I182
I72
tp406
a(I182
I255
I255
tp407
a(I255
I36
I255
tp408
a(I109
I72
I72
tp409
a(I0
I182
I72
tp410
a(I182
I0
I109
tp411
a(I72
I36
I72
tp412
a(I109
I36
I218
tp413
a(I0
I145
I0
tp414
a(I72
I36
I145
tp415
a(I72
I0
I72
tp416
a(I145
I36
I0
tp417
a(I0
I36
I218
tp418
a(I145
I218
I182
tp419
a(I255
I109
I0
tp420
a(I109
I255
I218
tp421
a(I182
I0
I145
tp422
a(I0
I218
I72
tp423
a(I182
I72
I145
tp424
a(I109
I182
I218
tp425
a(I0
I72
I182
tp426
a(I109
I72
I182
tp427
a(I218
I109
I218
tp428
a(I0
I182
I182
tp429
a(I182
I218
I255
tp430
a(I36
I145
I145
tp431
a(I145
I0
I182
tp432
a(I72
I255
I109
tp433
a(I255
I218
I255
tp434
a(I218
I109
I145
tp435
a(I145
I72
I36
tp436
a(I109
I145
I218
tp437
a(I72
I218
I218
tp438
a(I255
I36
I182
tp439
a(I255
I109
I109
tp440
a(I218
I255
I72
tp441
a(I255
I145
I36
tp442
a(I109
I0
I0
tp443
a(I145
I109
I0
tp444
a(I0
I182
I145
tp445
a(I145
I72
I145
tp446
a(I109
I218
I255
tp447
a(I182
I72
I36
tp448
a(I36
I109
I36
tp449
a(I72
I109
I182
tp450
a(I0
I255
I0
tp451
a(I72
I72
I145
tp452
a(I182
I109
I182
tp453
a(I36
I255
I109
tp454
a(I255
I72
I109
tp455
a(I36
I72
I0
tp456
a(I36
I109
I145
tp457
a(I182
I109
I145
tp458
a(I36
I0
I182
tp459
a(I36
I72
I218
tp460
a(I0
I255
I182
tp461
a(I109
I182
I0
tp462
a(I255
I255
I255
tp463
a(I0
I72
I255
tp464
a(I145
I109
I255
tp465
a(I109
I0
I255
tp466
a(I0
I182
I255
tp467
a(I36
I36
I182
tp468
a(I182
I145
I36
tp469
a(I145
I182
I0
tp470
a(I255
I109
I182
tp471
a(I109
I145
I0
tp472
a(I0
I109
I0
tp473
a(I72
I218
I0
tp474
a(I145
I36
I145
tp475
a(I255
I218
I0
tp476
a(I182
I145
I145
tp477
a(I109
I36
I0
tp478
a(I72
I36
I218
tp479
a(I218
I109
I36
tp480
a(I255
I0
I109
tp481
a(I145
I255
I182
tp482
a(I109
I255
I0
tp483
a(I145
I218
I36
tp484
a(I109
I255
I109
tp485
a(I218
I0
I0
tp486
a(I0
I36
I109
tp487
a(I36
I182
I145
tp488
a(I0
I145
I255
tp489
a(I145
I255
I0
tp490
a(I109
I218
I0
tp491
a(I218
I218
I0
tp492
a(I72
I145
I0
tp493
a(I72
I36
I36
tp494
a(I182
I255
I0
tp495
a(I36
I36
I255
tp496
a(I109
I109
I0
tp497
a(I72
I182
I0
tp498
a(I36
I218
I109
tp499
a(I0
I0
I0
tp500
a(I72
I109
I109
tp501
a(I109
I72
I0
tp502
a(I218
I145
I255
tp503
a(I182
I36
I218
tp504
a(I36
I182
I36
tp505
a(I36
I255
I255
tp506
a(I255
I72
I36
tp507
a(I255
I182
I255
tp508
a(I36
I109
I72
tp509
a(I36
I0
I255
tp510
a(I182
I182
I109
tp511
a(I218
I36
I218
tp512
a.